; Function Attrs: mustprogress nofree norecurse nosync nounwind willreturn memory(read, inaccessiblemem: none) uwtable
define hidden noundef zeroext i1 @_ZNK14bv_decl_plugin8is_valueEP3app(ptr noundef nonnull readonly align 8 captures(none) dereferenceable(608) %0, ptr noundef readonly captures(none) %1) unnamed_addr #11 align 2 {
  %3 = getelementptr inbounds nuw i8, ptr %0, i64 16
  %4 = load i32, ptr %3, align 8, !tbaa !10
  %5 = getelementptr inbounds nuw i8, ptr %1, i64 4
  %6 = load i32, ptr %5, align 4
  %7 = and i32 %6, 65535
  %8 = icmp eq i32 %7, 0
  br i1 %8, label %9, label %_Z9is_app_ofPK4exprii.exit

9:                                                ; preds = %2
  %10 = getelementptr inbounds nuw i8, ptr %1, i64 16
  %11 = load ptr, ptr %10, align 8, !tbaa !163
  %12 = getelementptr inbounds nuw i8, ptr %11, i64 24
  %13 = load ptr, ptr %12, align 8, !tbaa !134
  %.not.i.i.i = icmp eq ptr %13, null
  br i1 %.not.i.i.i, label %_Z9is_app_ofPK4exprii.exit, label %14

14:                                               ; preds = %9
  %15 = load i32, ptr %13, align 8, !tbaa !19
  %16 = icmp eq i32 %15, %4
  %17 = getelementptr inbounds nuw i8, ptr %13, i64 4
  %18 = load i32, ptr %17, align 4
  %19 = icmp eq i32 %18, 0
  %20 = select i1 %16, i1 %19, i1 false
  br label %_Z9is_app_ofPK4exprii.exit

_Z9is_app_ofPK4exprii.exit:                       ; preds = %2, %9, %14
  %21 = phi i1 [ false, %2 ], [ false, %9 ], [ %20, %14 ]
  ret i1 %21
}